target datalayout = "e-m:e-p270:32:32-p271:32:32-p272:64:64-i64:64-i128:128-f80:128-n8:16:32:64-S128"
target triple = "x86_64-pc-linux-gnu"

%struct._zend_executor_globals = type { %struct._zval_struct, %struct._zval_struct, [32 x ptr], ptr, ptr, %struct._zend_array, %struct._zend_array, ptr, i32, i8, %struct._zval_struct, i32, ptr, ptr, ptr, ptr, ptr, ptr, i64, ptr, ptr, i32, ptr, i32, i64, i32, i32, i32, i8, i8, %struct.zend_atomic_bool_s, %struct.zend_atomic_bool_s, ptr, i64, ptr, ptr, %struct._zend_array, %struct._zend_array, i32, i8, %struct._zval_struct, %struct._zval_struct, %struct._zend_stack, %struct._zend_stack, %struct._zend_stack, ptr, i32, i32, i64, ptr, ptr, ptr, %struct._zend_objects_store, %struct._zend_lazy_objects_store, ptr, ptr, ptr, [3 x %struct._zend_op], ptr, i8, i8, i64, i32, i32, ptr, [16 x %struct._HashTableIterator], ptr, %union._zend_function, %struct._zend_op, %struct._zend_array, i64, %struct.zend_get_gc_buffer, ptr, ptr, ptr, i64, i8, i32, ptr, ptr, i64, %struct._zend_call_stack, i64, i64, %struct._zend_strtod_state, [6 x ptr] }
%struct.zend_atomic_bool_s = type { i8 }
%struct._zval_struct = type { %union._zend_value, %union.anon, %union.anon.2 }
%union._zend_value = type { i64 }
%union.anon = type { i32 }
%union.anon.2 = type { i32 }
%struct._zend_stack = type { i32, i32, i32, ptr }
%struct._zend_objects_store = type { ptr, i32, i32, i32 }
%struct._zend_lazy_objects_store = type { %struct._zend_array }
%struct._HashTableIterator = type { ptr, i32, i32 }
%union._zend_function = type { %struct._zend_op_array }
%struct._zend_op_array = type { i8, [3 x i8], i32, ptr, ptr, ptr, i32, i32, ptr, ptr, ptr, ptr, i32, ptr, i32, i32, i32, ptr, ptr, ptr, ptr, ptr, i32, i32, ptr, ptr, ptr, i32, i32, i32, i32, ptr, ptr, [6 x ptr] }
%struct._zend_op = type { ptr, %union._znode_op, %union._znode_op, %union._znode_op, i32, i32, i8, i8, i8, i8 }
%union._znode_op = type { i32 }
%struct._zend_array = type { %struct._zend_refcounted_h, %union.anon.4, i32, %union.anon.6, i32, i32, i32, i32, i64, ptr }
%struct._zend_refcounted_h = type { i32, %union.anon.3 }
%union.anon.3 = type { i32 }
%union.anon.4 = type { i32 }
%union.anon.6 = type { ptr }
%struct.zend_get_gc_buffer = type { ptr, ptr, ptr }
%struct._zend_call_stack = type { ptr, i64 }
%struct._zend_strtod_state = type { [8 x ptr], ptr, ptr }
%struct._zend_phar_globals = type { %struct._zend_array, %struct._zend_array, ptr, %struct._zend_array, i32, ptr, i8, i8, i8, i8, i8, i8, i8, i8, i8, i8, i8, i8, ptr, ptr, ptr, ptr, ptr, ptr, ptr, ptr, ptr, ptr, ptr, ptr, ptr, ptr, ptr, ptr, ptr, ptr, ptr, ptr, ptr, ptr, ptr, i32, i8, ptr, i32, ptr, i32, ptr, i32, ptr, %struct._zend_array }
%struct._zend_object_handlers = type { i32, ptr, ptr, ptr, ptr, ptr, ptr, ptr, ptr, ptr, ptr, ptr, ptr, ptr, ptr, ptr, ptr, ptr, ptr, ptr, ptr, ptr, ptr, ptr, ptr }
%struct._zend_execute_data = type { ptr, ptr, ptr, ptr, %struct._zval_struct, ptr, ptr, ptr, ptr }
%struct._phar_archive_data = type { ptr, i32, ptr, i32, ptr, i32, [12 x i8], i64, %struct._zend_array, %struct._zend_array, %struct._zend_array, i32, i32, i32, ptr, ptr, i32, i32, i32, ptr, %struct._phar_metadata_tracker, i32, i16 }
%struct._phar_metadata_tracker = type { %struct._zval_struct, ptr }
%struct._zend_object = type { %struct._zend_refcounted_h, i32, i32, ptr, ptr, ptr, [1 x %struct._zval_struct] }

@executor_globals = external global %struct._zend_executor_globals, align 8
@phar_ce_PharException = internal global ptr null, align 8
@phar_globals = external global %struct._zend_phar_globals, align 8
@.str.9 = private unnamed_addr constant [3 x i8] c"%s\00", align 1
@spl_ce_BadMethodCallException = external global ptr, align 8
@.str.72 = private unnamed_addr constant [51 x i8] c"Cannot call method on an uninitialized Phar object\00", align 1
@.str.77 = private unnamed_addr constant [49 x i8] c"phar \22%s\22 is persistent, unable to copy on write\00", align 1
@.str.122 = private unnamed_addr constant [44 x i8] c"Phar is readonly, cannot change compression\00", align 1
@.str.128 = private unnamed_addr constant [93 x i8] c"Cannot decompress all files, some are compressed as bzip2 or gzip and cannot be decompressed\00", align 1

; Function Attrs: nounwind uwtable
define internal void @pharobj_set_compression(ptr noundef %0, i32 noundef %1) #0 {
  %3 = alloca ptr, align 8
  %4 = alloca i32, align 4
  store ptr %0, ptr %3, align 8, !tbaa !59
  store i32 %1, ptr %4, align 4, !tbaa !81
  %5 = load ptr, ptr %3, align 8, !tbaa !59
  call void @zend_hash_apply_with_argument(ptr noundef %5, ptr noundef @phar_set_compression, ptr noundef %4)
  ret void
}

; Function Attrs: nounwind uwtable
define internal i32 @pharobj_cancompress(ptr noundef %0) #0 {
  %2 = alloca ptr, align 8
  %3 = alloca i32, align 4
  store ptr %0, ptr %2, align 8, !tbaa !59
  call void @llvm.lifetime.start.p0(i64 4, ptr %3) #17
  store i32 1, ptr %3, align 4, !tbaa !81
  %4 = load ptr, ptr %2, align 8, !tbaa !59
  call void @zend_hash_apply_with_argument(ptr noundef %4, ptr noundef @phar_test_compression, ptr noundef %3)
  %5 = load i32, ptr %3, align 4, !tbaa !81
  call void @llvm.lifetime.end.p0(i64 4, ptr %3) #17
  ret i32 %5
}

; Function Attrs: nounwind uwtable
define hidden void @zim_Phar_decompressFiles(ptr noundef %0, ptr noundef %1) #0 {
  %3 = alloca ptr, align 8
  %4 = alloca ptr, align 8
  %5 = alloca ptr, align 8
  %6 = alloca i32, align 4
  %7 = alloca ptr, align 8
  %8 = alloca ptr, align 8
  store ptr %0, ptr %3, align 8, !tbaa !4
  store ptr %1, ptr %4, align 8, !tbaa !9
  call void @llvm.lifetime.start.p0(i64 8, ptr %5) #17
  %9 = load ptr, ptr %3, align 8, !tbaa !4
  %10 = getelementptr inbounds nuw %struct._zend_execute_data, ptr %9, i32 0, i32 4
  %11 = getelementptr inbounds nuw %struct._zval_struct, ptr %10, i32 0, i32 2
  %12 = load i32, ptr %11, align 4, !tbaa !13
  %13 = icmp eq i32 %12, 0
  %14 = xor i1 %13, true
  %15 = xor i1 %14, true
  %16 = zext i1 %15 to i32
  %17 = sext i32 %16 to i64
  %18 = call i64 @llvm.expect.i64(i64 %17, i64 1)
  %19 = icmp ne i64 %18, 0
  br i1 %19, label %20, label %21

20:                                               ; preds = %2
  br label %22

21:                                               ; preds = %2
  call void @zend_wrong_parameters_none_error()
  br label %22

22:                                               ; preds = %21, %20
  %23 = phi i32 [ 0, %20 ], [ -1, %21 ]
  %24 = icmp eq i32 %23, -1
  br i1 %24, label %25, label %31

25:                                               ; preds = %22
  br label %26

26:                                               ; preds = %25
  %27 = load ptr, ptr getelementptr inbounds nuw (%struct._zend_executor_globals, ptr @executor_globals, i32 0, i32 54), align 8, !tbaa !14
  %28 = icmp ne ptr %27, null
  call void @llvm.assume(i1 %28)
  store i32 1, ptr %6, align 4
  br label %165

29:                                               ; No predecessors!
  br label %30

30:                                               ; preds = %29
  br label %31

31:                                               ; preds = %30, %22
  call void @llvm.lifetime.start.p0(i64 8, ptr %7) #17
  %32 = load ptr, ptr %3, align 8, !tbaa !4
  %33 = getelementptr inbounds nuw %struct._zend_execute_data, ptr %32, i32 0, i32 4
  store ptr %33, ptr %7, align 8, !tbaa !9
  call void @llvm.lifetime.start.p0(i64 8, ptr %8) #17
  %34 = load ptr, ptr %7, align 8, !tbaa !9
  %35 = getelementptr inbounds nuw %struct._zval_struct, ptr %34, i32 0, i32 0
  %36 = load ptr, ptr %35, align 8, !tbaa !13
  %37 = load ptr, ptr %7, align 8, !tbaa !9
  %38 = getelementptr inbounds nuw %struct._zval_struct, ptr %37, i32 0, i32 0
  %39 = load ptr, ptr %38, align 8, !tbaa !13
  %40 = getelementptr inbounds nuw %struct._zend_object, ptr %39, i32 0, i32 4
  %41 = load ptr, ptr %40, align 8, !tbaa !118
  %42 = getelementptr inbounds nuw %struct._zend_object_handlers, ptr %41, i32 0, i32 0
  %43 = load i32, ptr %42, align 8, !tbaa !121
  %44 = sext i32 %43 to i64
  %45 = sub i64 0, %44
  %46 = getelementptr inbounds i8, ptr %36, i64 %45
  store ptr %46, ptr %8, align 8, !tbaa !123
  %47 = load ptr, ptr %8, align 8, !tbaa !123
  %48 = load ptr, ptr %47, align 8, !tbaa !13
  %49 = icmp ne ptr %48, null
  br i1 %49, label %58, label %50

50:                                               ; preds = %31
  %51 = load ptr, ptr @spl_ce_BadMethodCallException, align 8, !tbaa !53
  %52 = call ptr (ptr, i64, ptr, ...) @zend_throw_exception_ex(ptr noundef %51, i64 noundef 0, ptr noundef @.str.72)
  br label %53

53:                                               ; preds = %50
  %54 = load ptr, ptr getelementptr inbounds nuw (%struct._zend_executor_globals, ptr @executor_globals, i32 0, i32 54), align 8, !tbaa !14
  %55 = icmp ne ptr %54, null
  call void @llvm.assume(i1 %55)
  store i32 1, ptr %6, align 4
  br label %164

56:                                               ; No predecessors!
  br label %57

57:                                               ; preds = %56
  br label %58

58:                                               ; preds = %57, %31
  %59 = load i8, ptr getelementptr inbounds nuw (%struct._zend_phar_globals, ptr @phar_globals, i32 0, i32 6), align 8, !tbaa !117, !range !50, !noundef !51
  %60 = trunc i8 %59 to i1
  br i1 %60, label %61, label %78

61:                                               ; preds = %58
  %62 = load ptr, ptr %8, align 8, !tbaa !123
  %63 = load ptr, ptr %62, align 8, !tbaa !13
  %64 = getelementptr inbounds nuw %struct._phar_archive_data, ptr %63, i32 0, i32 22
  %65 = load i16, ptr %64, align 4
  %66 = lshr i16 %65, 7
  %67 = and i16 %66, 1
  %68 = zext i16 %67 to i32
  %69 = icmp ne i32 %68, 0
  br i1 %69, label %78, label %70

70:                                               ; preds = %61
  %71 = load ptr, ptr @spl_ce_BadMethodCallException, align 8, !tbaa !53
  %72 = call ptr (ptr, i64, ptr, ...) @zend_throw_exception_ex(ptr noundef %71, i64 noundef 0, ptr noundef @.str.122)
  br label %73

73:                                               ; preds = %70
  %74 = load ptr, ptr getelementptr inbounds nuw (%struct._zend_executor_globals, ptr @executor_globals, i32 0, i32 54), align 8, !tbaa !14
  %75 = icmp ne ptr %74, null
  call void @llvm.assume(i1 %75)
  store i32 1, ptr %6, align 4
  br label %164

76:                                               ; No predecessors!
  br label %77

77:                                               ; preds = %76
  br label %78

78:                                               ; preds = %77, %61, %58
  %79 = load ptr, ptr %8, align 8, !tbaa !123
  %80 = load ptr, ptr %79, align 8, !tbaa !13
  %81 = getelementptr inbounds nuw %struct._phar_archive_data, ptr %80, i32 0, i32 8
  %82 = call i32 @pharobj_cancompress(ptr noundef %81)
  %83 = icmp ne i32 %82, 0
  br i1 %83, label %92, label %84

84:                                               ; preds = %78
  %85 = load ptr, ptr @spl_ce_BadMethodCallException, align 8, !tbaa !53
  %86 = call ptr (ptr, i64, ptr, ...) @zend_throw_exception_ex(ptr noundef %85, i64 noundef 0, ptr noundef @.str.128)
  br label %87

87:                                               ; preds = %84
  %88 = load ptr, ptr getelementptr inbounds nuw (%struct._zend_executor_globals, ptr @executor_globals, i32 0, i32 54), align 8, !tbaa !14
  %89 = icmp ne ptr %88, null
  call void @llvm.assume(i1 %89)
  store i32 1, ptr %6, align 4
  br label %164

90:                                               ; No predecessors!
  br label %91

91:                                               ; preds = %90
  br label %92

92:                                               ; preds = %91, %78
  %93 = load ptr, ptr %8, align 8, !tbaa !123
  %94 = load ptr, ptr %93, align 8, !tbaa !13
  %95 = getelementptr inbounds nuw %struct._phar_archive_data, ptr %94, i32 0, i32 22
  %96 = load i16, ptr %95, align 4
  %97 = lshr i16 %96, 6
  %98 = and i16 %97, 1
  %99 = zext i16 %98 to i32
  %100 = icmp ne i32 %99, 0
  br i1 %100, label %101, label %110

101:                                              ; preds = %92
  br label %102

102:                                              ; preds = %101
  br label %103

103:                                              ; preds = %102
  %104 = load ptr, ptr %4, align 8, !tbaa !9
  %105 = getelementptr inbounds nuw %struct._zval_struct, ptr %104, i32 0, i32 1
  store i32 3, ptr %105, align 8, !tbaa !13
  br label %106

106:                                              ; preds = %103
  br label %107

107:                                              ; preds = %106
  store i32 1, ptr %6, align 4
  br label %164

108:                                              ; No predecessors!
  br label %109

109:                                              ; preds = %108
  br label %139

110:                                              ; preds = %92
  %111 = load ptr, ptr %8, align 8, !tbaa !123
  %112 = load ptr, ptr %111, align 8, !tbaa !13
  %113 = getelementptr inbounds nuw %struct._phar_archive_data, ptr %112, i32 0, i32 22
  %114 = load i16, ptr %113, align 4
  %115 = lshr i16 %114, 8
  %116 = and i16 %115, 1
  %117 = zext i16 %116 to i32
  %118 = icmp ne i32 %117, 0
  br i1 %118, label %119, label %135

119:                                              ; preds = %110
  %120 = load ptr, ptr %8, align 8, !tbaa !123
  %121 = call i32 @phar_copy_on_write(ptr noundef %120)
  %122 = icmp eq i32 -1, %121
  br i1 %122, label %123, label %135

123:                                              ; preds = %119
  %124 = load ptr, ptr @phar_ce_PharException, align 8, !tbaa !53
  %125 = load ptr, ptr %8, align 8, !tbaa !123
  %126 = load ptr, ptr %125, align 8, !tbaa !13
  %127 = getelementptr inbounds nuw %struct._phar_archive_data, ptr %126, i32 0, i32 0
  %128 = load ptr, ptr %127, align 8, !tbaa !128
  %129 = call ptr (ptr, i64, ptr, ...) @zend_throw_exception_ex(ptr noundef %124, i64 noundef 0, ptr noundef @.str.77, ptr noundef %128)
  br label %130

130:                                              ; preds = %123
  %131 = load ptr, ptr getelementptr inbounds nuw (%struct._zend_executor_globals, ptr @executor_globals, i32 0, i32 54), align 8, !tbaa !14
  %132 = icmp ne ptr %131, null
  call void @llvm.assume(i1 %132)
  store i32 1, ptr %6, align 4
  br label %164

133:                                              ; No predecessors!
  br label %134

134:                                              ; preds = %133
  br label %135

135:                                              ; preds = %134, %119, %110
  %136 = load ptr, ptr %8, align 8, !tbaa !123
  %137 = load ptr, ptr %136, align 8, !tbaa !13
  %138 = getelementptr inbounds nuw %struct._phar_archive_data, ptr %137, i32 0, i32 8
  call void @pharobj_set_compression(ptr noundef %138, i32 noundef 0)
  br label %139

139:                                              ; preds = %135, %109
  %140 = load ptr, ptr %8, align 8, !tbaa !123
  %141 = load ptr, ptr %140, align 8, !tbaa !13
  %142 = getelementptr inbounds nuw %struct._phar_archive_data, ptr %141, i32 0, i32 22
  %143 = load i16, ptr %142, align 4
  %144 = and i16 %143, -3
  %145 = or i16 %144, 2
  store i16 %145, ptr %142, align 4
  %146 = load ptr, ptr %8, align 8, !tbaa !123
  %147 = load ptr, ptr %146, align 8, !tbaa !13
  call void @phar_flush(ptr noundef %147, ptr noundef %5)
  %148 = load ptr, ptr %5, align 8, !tbaa !49
  %149 = icmp ne ptr %148, null
  br i1 %149, label %150, label %155

150:                                              ; preds = %139
  %151 = load ptr, ptr @spl_ce_BadMethodCallException, align 8, !tbaa !53
  %152 = load ptr, ptr %5, align 8, !tbaa !49
  %153 = call ptr (ptr, i64, ptr, ...) @zend_throw_exception_ex(ptr noundef %151, i64 noundef 0, ptr noundef @.str.9, ptr noundef %152)
  %154 = load ptr, ptr %5, align 8, !tbaa !49
  call void @_efree(ptr noundef %154)
  br label %155

155:                                              ; preds = %150, %139
  br label %156

156:                                              ; preds = %155
  br label %157

157:                                              ; preds = %156
  %158 = load ptr, ptr %4, align 8, !tbaa !9
  %159 = getelementptr inbounds nuw %struct._zval_struct, ptr %158, i32 0, i32 1
  store i32 3, ptr %159, align 8, !tbaa !13
  br label %160

160:                                              ; preds = %157
  br label %161

161:                                              ; preds = %160
  store i32 1, ptr %6, align 4
  br label %164

162:                                              ; No predecessors!
  br label %163

163:                                              ; preds = %162
  store i32 0, ptr %6, align 4
  br label %164

164:                                              ; preds = %163, %161, %130, %107, %87, %73, %53
  call void @llvm.lifetime.end.p0(i64 8, ptr %8) #17
  call void @llvm.lifetime.end.p0(i64 8, ptr %7) #17
  br label %165

165:                                              ; preds = %164, %26
  call void @llvm.lifetime.end.p0(i64 8, ptr %5) #17
  %166 = load i32, ptr %6, align 4
  switch i32 %166, label %168 [
    i32 0, label %167
    i32 1, label %167
  ]

167:                                              ; preds = %165, %165
  ret void

168:                                              ; preds = %165
  unreachable
}