; Function Attrs: nounwind uwtable
define hidden void @zim_Phar_decompressFiles(ptr noundef readonly captures(none) %0, ptr noundef writeonly captures(none) %1) #0 {
  %3 = alloca i32, align 4
  %4 = alloca i32, align 4
  %5 = alloca ptr, align 8
  call void @llvm.lifetime.start.p0(i64 8, ptr nonnull %5) #20
  %6 = getelementptr inbounds nuw i8, ptr %0, i64 44
  %7 = load i32, ptr %6, align 4, !tbaa !8
  %.not = icmp eq i32 %7, 0
  br i1 %.not, label %.critedge, label %8, !prof !105

8:                                                ; preds = %2
  tail call void @zend_wrong_parameters_none_error() #20
  %9 = load ptr, ptr getelementptr inbounds nuw (i8, ptr @executor_globals, i64 960), align 8, !tbaa !9
  %10 = icmp ne ptr %9, null
  tail call void @llvm.assume(i1 %10)
  br label %78

.critedge:                                        ; preds = %2
  %11 = getelementptr inbounds nuw i8, ptr %0, i64 32
  %12 = load ptr, ptr %11, align 8, !tbaa !8
  %13 = getelementptr inbounds nuw i8, ptr %12, i64 24
  %14 = load ptr, ptr %13, align 8, !tbaa !109
  %15 = load i32, ptr %14, align 8, !tbaa !112
  %16 = sext i32 %15 to i64
  %17 = sub nsw i64 0, %16
  %18 = getelementptr inbounds i8, ptr %12, i64 %17
  %19 = load ptr, ptr %18, align 8, !tbaa !8
  %.not17 = icmp eq ptr %19, null
  br i1 %.not17, label %20, label %25

20:                                               ; preds = %.critedge
  %21 = load ptr, ptr @spl_ce_BadMethodCallException, align 8, !tbaa !54
  %22 = tail call ptr (ptr, i64, ptr, ...) @zend_throw_exception_ex(ptr noundef %21, i64 noundef 0, ptr noundef nonnull @.str.72) #20
  %23 = load ptr, ptr getelementptr inbounds nuw (i8, ptr @executor_globals, i64 960), align 8, !tbaa !9
  %24 = icmp ne ptr %23, null
  tail call void @llvm.assume(i1 %24)
  br label %78

25:                                               ; preds = %.critedge
  %26 = load i8, ptr getelementptr inbounds nuw (i8, ptr @phar_globals, i64 192), align 8, !tbaa !108, !range !48, !noundef !49
  %27 = trunc nuw i8 %26 to i1
  br i1 %27, label %28, label %37

28:                                               ; preds = %25
  %29 = getelementptr inbounds nuw i8, ptr %19, i64 316
  %30 = load i16, ptr %29, align 4
  %31 = and i16 %30, 128
  %.not18 = icmp eq i16 %31, 0
  br i1 %.not18, label %32, label %37

32:                                               ; preds = %28
  %33 = load ptr, ptr @spl_ce_BadMethodCallException, align 8, !tbaa !54
  %34 = tail call ptr (ptr, i64, ptr, ...) @zend_throw_exception_ex(ptr noundef %33, i64 noundef 0, ptr noundef nonnull @.str.122) #20
  %35 = load ptr, ptr getelementptr inbounds nuw (i8, ptr @executor_globals, i64 960), align 8, !tbaa !9
  %36 = icmp ne ptr %35, null
  tail call void @llvm.assume(i1 %36)
  br label %78

37:                                               ; preds = %28, %25
  %38 = getelementptr inbounds nuw i8, ptr %19, i64 64
  call void @llvm.lifetime.start.p0(i64 4, ptr nonnull %4) #20
  store i32 1, ptr %4, align 4, !tbaa !168
  call void @zend_hash_apply_with_argument(ptr noundef nonnull %38, ptr noundef nonnull @phar_test_compression, ptr noundef nonnull %4) #20
  %39 = load i32, ptr %4, align 4, !tbaa !168
  call void @llvm.lifetime.end.p0(i64 4, ptr nonnull %4) #20
  %.not19 = icmp eq i32 %39, 0
  br i1 %.not19, label %40, label %45

40:                                               ; preds = %37
  %41 = load ptr, ptr @spl_ce_BadMethodCallException, align 8, !tbaa !54
  %42 = call ptr (ptr, i64, ptr, ...) @zend_throw_exception_ex(ptr noundef %41, i64 noundef 0, ptr noundef nonnull @.str.128) #20
  %43 = load ptr, ptr getelementptr inbounds nuw (i8, ptr @executor_globals, i64 960), align 8, !tbaa !9
  %44 = icmp ne ptr %43, null
  call void @llvm.assume(i1 %44)
  br label %78

45:                                               ; preds = %37
  %46 = load ptr, ptr %18, align 8, !tbaa !8
  %47 = getelementptr inbounds nuw i8, ptr %46, i64 316
  %48 = load i16, ptr %47, align 4
  %49 = and i16 %48, 64
  %.not20 = icmp eq i16 %49, 0
  br i1 %.not20, label %52, label %50

50:                                               ; preds = %45
  %51 = getelementptr inbounds nuw i8, ptr %1, i64 8
  store i32 3, ptr %51, align 8, !tbaa !8
  br label %78

52:                                               ; preds = %45
  %53 = and i16 %48, 256
  %.not21 = icmp eq i16 %53, 0
  br i1 %.not21, label %63, label %54

54:                                               ; preds = %52
  %55 = call i32 @phar_copy_on_write(ptr noundef nonnull %18) #20
  %56 = icmp eq i32 %55, -1
  %.pre = load ptr, ptr %18, align 8, !tbaa !8
  br i1 %56, label %57, label %63

57:                                               ; preds = %54
  %58 = load ptr, ptr @phar_ce_PharException, align 8, !tbaa !54
  %59 = load ptr, ptr %.pre, align 8, !tbaa !117
  %60 = call ptr (ptr, i64, ptr, ...) @zend_throw_exception_ex(ptr noundef %58, i64 noundef 0, ptr noundef nonnull @.str.77, ptr noundef %59) #20
  %61 = load ptr, ptr getelementptr inbounds nuw (i8, ptr @executor_globals, i64 960), align 8, !tbaa !9
  %62 = icmp ne ptr %61, null
  call void @llvm.assume(i1 %62)
  br label %78

63:                                               ; preds = %54, %52
  %64 = phi ptr [ %.pre, %54 ], [ %46, %52 ]
  %65 = getelementptr inbounds nuw i8, ptr %64, i64 64
  call void @llvm.lifetime.start.p0(i64 4, ptr nonnull %3)
  store i32 0, ptr %3, align 4, !tbaa !168
  call void @zend_hash_apply_with_argument(ptr noundef nonnull %65, ptr noundef nonnull @phar_set_compression, ptr noundef nonnull %3) #20
  call void @llvm.lifetime.end.p0(i64 4, ptr nonnull %3)
  %66 = load ptr, ptr %18, align 8, !tbaa !8
  %67 = getelementptr inbounds nuw i8, ptr %66, i64 316
  %68 = load i16, ptr %67, align 4
  %69 = or i16 %68, 2
  store i16 %69, ptr %67, align 4
  %70 = load ptr, ptr %18, align 8, !tbaa !8
  call void @phar_flush(ptr noundef %70, ptr noundef nonnull %5) #20
  %71 = load ptr, ptr %5, align 8, !tbaa !47
  %.not22 = icmp eq ptr %71, null
  br i1 %.not22, label %76, label %72

72:                                               ; preds = %63
  %73 = load ptr, ptr @spl_ce_BadMethodCallException, align 8, !tbaa !54
  %74 = call ptr (ptr, i64, ptr, ...) @zend_throw_exception_ex(ptr noundef %73, i64 noundef 0, ptr noundef nonnull @.str.9, ptr noundef nonnull %71) #20
  %75 = load ptr, ptr %5, align 8, !tbaa !47
  call void @_efree(ptr noundef %75) #20
  br label %76

76:                                               ; preds = %72, %63
  %77 = getelementptr inbounds nuw i8, ptr %1, i64 8
  store i32 3, ptr %77, align 8, !tbaa !8
  br label %78

78:                                               ; preds = %20, %32, %40, %50, %57, %76, %8
  call void @llvm.lifetime.end.p0(i64 8, ptr nonnull %5) #20
  ret void
}